target datalayout = "e-m:e-p270:32:32-p271:32:32-p272:64:64-i64:64-i128:128-f80:128-n8:16:32:64-S128"
target triple = "x86_64-pc-linux-gnu"

%struct.Nwk_Grf_t_ = type { i32, i32, i32, ptr, ptr, i32, i32, ptr, ptr, [17 x i32], [17 x i32], ptr, ptr, ptr, i32, i32 }
%struct.Nwk_Vrt_t_ = type { i32, i32, i32, i32, [0 x i32] }

; Function Attrs: nounwind uwtable
define ptr @Nwk_ManGraphListFindMin(ptr noundef %0, i32 noundef %1) #0 {
  %3 = alloca ptr, align 8
  %4 = alloca i32, align 4
  %5 = alloca ptr, align 8
  %6 = alloca ptr, align 8
  %7 = alloca i32, align 4
  %8 = alloca i32, align 4
  %9 = alloca i32, align 4
  store ptr %0, ptr %3, align 8, !tbaa !7
  store i32 %1, ptr %4, align 4, !tbaa !3
  call void @llvm.lifetime.start.p0(i64 8, ptr %5) #11
  call void @llvm.lifetime.start.p0(i64 8, ptr %6) #11
  store ptr null, ptr %6, align 8, !tbaa !52
  call void @llvm.lifetime.start.p0(i64 4, ptr %7) #11
  call void @llvm.lifetime.start.p0(i64 4, ptr %8) #11
  store i32 10000, ptr %8, align 4, !tbaa !3
  call void @llvm.lifetime.start.p0(i64 4, ptr %9) #11
  store i32 1000000, ptr %9, align 4, !tbaa !3
  %10 = load i32, ptr %4, align 4, !tbaa !3
  %11 = icmp ne i32 %10, 0
  br i1 %11, label %12, label %20

12:                                               ; preds = %2
  %13 = load ptr, ptr %3, align 8, !tbaa !7
  %14 = getelementptr inbounds nuw %struct.Nwk_Grf_t_, ptr %13, i32 0, i32 7
  %15 = load ptr, ptr %14, align 8, !tbaa !31
  %16 = load i32, ptr %4, align 4, !tbaa !3
  %17 = sext i32 %16 to i64
  %18 = getelementptr inbounds ptr, ptr %15, i64 %17
  %19 = load ptr, ptr %18, align 8, !tbaa !52
  br label %21

20:                                               ; preds = %2
  br label %21

21:                                               ; preds = %20, %12
  %22 = phi ptr [ %19, %12 ], [ null, %20 ]
  store ptr %22, ptr %5, align 8, !tbaa !52
  br label %23

23:                                               ; preds = %95, %21
  %24 = load ptr, ptr %5, align 8, !tbaa !52
  %25 = icmp ne ptr %24, null
  br i1 %25, label %26, label %97

26:                                               ; preds = %23
  store i32 0, ptr %7, align 4, !tbaa !3
  br label %27

27:                                               ; preds = %70, %26
  %28 = load i32, ptr %7, align 4, !tbaa !3
  %29 = load ptr, ptr %5, align 8, !tbaa !52
  %30 = getelementptr inbounds nuw %struct.Nwk_Vrt_t_, ptr %29, i32 0, i32 3
  %31 = load i32, ptr %30, align 4, !tbaa !57
  %32 = icmp slt i32 %28, %31
  br i1 %32, label %33, label %73

33:                                               ; preds = %27
  %34 = load ptr, ptr %6, align 8, !tbaa !52
  %35 = icmp eq ptr %34, null
  br i1 %35, label %53, label %36

36:                                               ; preds = %33
  %37 = load i32, ptr %9, align 4, !tbaa !3
  %38 = load ptr, ptr %3, align 8, !tbaa !7
  %39 = getelementptr inbounds nuw %struct.Nwk_Grf_t_, ptr %38, i32 0, i32 7
  %40 = load ptr, ptr %39, align 8, !tbaa !31
  %41 = load ptr, ptr %5, align 8, !tbaa !52
  %42 = getelementptr inbounds nuw %struct.Nwk_Vrt_t_, ptr %41, i32 0, i32 4
  %43 = load i32, ptr %7, align 4, !tbaa !3
  %44 = sext i32 %43 to i64
  %45 = getelementptr inbounds [0 x i32], ptr %42, i64 0, i64 %44
  %46 = load i32, ptr %45, align 4, !tbaa !3
  %47 = sext i32 %46 to i64
  %48 = getelementptr inbounds ptr, ptr %40, i64 %47
  %49 = load ptr, ptr %48, align 8, !tbaa !52
  %50 = getelementptr inbounds nuw %struct.Nwk_Vrt_t_, ptr %49, i32 0, i32 3
  %51 = load i32, ptr %50, align 4, !tbaa !57
  %52 = icmp sgt i32 %37, %51
  br i1 %52, label %53, label %69

53:                                               ; preds = %36, %33
  %54 = load ptr, ptr %3, align 8, !tbaa !7
  %55 = getelementptr inbounds nuw %struct.Nwk_Grf_t_, ptr %54, i32 0, i32 7
  %56 = load ptr, ptr %55, align 8, !tbaa !31
  %57 = load ptr, ptr %5, align 8, !tbaa !52
  %58 = getelementptr inbounds nuw %struct.Nwk_Vrt_t_, ptr %57, i32 0, i32 4
  %59 = load i32, ptr %7, align 4, !tbaa !3
  %60 = sext i32 %59 to i64
  %61 = getelementptr inbounds [0 x i32], ptr %58, i64 0, i64 %60
  %62 = load i32, ptr %61, align 4, !tbaa !3
  %63 = sext i32 %62 to i64
  %64 = getelementptr inbounds ptr, ptr %56, i64 %63
  %65 = load ptr, ptr %64, align 8, !tbaa !52
  %66 = getelementptr inbounds nuw %struct.Nwk_Vrt_t_, ptr %65, i32 0, i32 3
  %67 = load i32, ptr %66, align 4, !tbaa !57
  store i32 %67, ptr %9, align 4, !tbaa !3
  %68 = load ptr, ptr %5, align 8, !tbaa !52
  store ptr %68, ptr %6, align 8, !tbaa !52
  br label %69

69:                                               ; preds = %53, %36
  br label %70

70:                                               ; preds = %69
  %71 = load i32, ptr %7, align 4, !tbaa !3
  %72 = add nsw i32 %71, 1
  store i32 %72, ptr %7, align 4, !tbaa !3
  br label %27, !llvm.loop !75

73:                                               ; preds = %27
  %74 = load i32, ptr %8, align 4, !tbaa !3
  %75 = add nsw i32 %74, -1
  store i32 %75, ptr %8, align 4, !tbaa !3
  %76 = icmp eq i32 %75, 0
  br i1 %76, label %77, label %78

77:                                               ; preds = %73
  br label %97

78:                                               ; preds = %73
  br label %79

79:                                               ; preds = %78
  %80 = load ptr, ptr %5, align 8, !tbaa !52
  %81 = getelementptr inbounds nuw %struct.Nwk_Vrt_t_, ptr %80, i32 0, i32 2
  %82 = load i32, ptr %81, align 4, !tbaa !72
  %83 = icmp ne i32 %82, 0
  br i1 %83, label %84, label %94

84:                                               ; preds = %79
  %85 = load ptr, ptr %3, align 8, !tbaa !7
  %86 = getelementptr inbounds nuw %struct.Nwk_Grf_t_, ptr %85, i32 0, i32 7
  %87 = load ptr, ptr %86, align 8, !tbaa !31
  %88 = load ptr, ptr %5, align 8, !tbaa !52
  %89 = getelementptr inbounds nuw %struct.Nwk_Vrt_t_, ptr %88, i32 0, i32 2
  %90 = load i32, ptr %89, align 4, !tbaa !72
  %91 = sext i32 %90 to i64
  %92 = getelementptr inbounds ptr, ptr %87, i64 %91
  %93 = load ptr, ptr %92, align 8, !tbaa !52
  br label %95

94:                                               ; preds = %79
  br label %95

95:                                               ; preds = %94, %84
  %96 = phi ptr [ %93, %84 ], [ null, %94 ]
  store ptr %96, ptr %5, align 8, !tbaa !52
  br label %23, !llvm.loop !76

97:                                               ; preds = %77, %23
  %98 = load ptr, ptr %6, align 8, !tbaa !52
  call void @llvm.lifetime.end.p0(i64 4, ptr %9) #11
  call void @llvm.lifetime.end.p0(i64 4, ptr %8) #11
  call void @llvm.lifetime.end.p0(i64 4, ptr %7) #11
  call void @llvm.lifetime.end.p0(i64 8, ptr %6) #11
  call void @llvm.lifetime.end.p0(i64 8, ptr %5) #11
  ret ptr %98
}