; Function Attrs: nofree norecurse nosync nounwind memory(read, inaccessiblemem: none) uwtable
define ptr @Nwk_ManGraphListFindMin(ptr noundef readonly captures(none) %0, i32 noundef %1) local_unnamed_addr #11 {
  %.not = icmp eq i32 %1, 0
  br i1 %.not, label %._crit_edge40, label %3

3:                                                ; preds = %2
  %4 = getelementptr inbounds nuw i8, ptr %0, i64 40
  %5 = load ptr, ptr %4, align 8, !tbaa !27
  %6 = sext i32 %1 to i64
  %7 = getelementptr inbounds ptr, ptr %5, i64 %6
  %8 = load ptr, ptr %7, align 8, !tbaa !48
  %.not2935 = icmp eq ptr %8, null
  br i1 %.not2935, label %._crit_edge40, label %.preheader.lr.ph

.preheader.lr.ph:                                 ; preds = %3
  %9 = getelementptr inbounds nuw i8, ptr %0, i64 40
  br label %.preheader

.preheader:                                       ; preds = %.preheader.lr.ph, %22
  %.039 = phi i32 [ 1000000, %.preheader.lr.ph ], [ %.1.lcssa, %22 ]
  %.02038 = phi i32 [ 10000, %.preheader.lr.ph ], [ %17, %22 ]
  %.02237 = phi ptr [ null, %.preheader.lr.ph ], [ %.224.lcssa, %22 ]
  %.02536 = phi ptr [ %8, %.preheader.lr.ph ], [ %26, %22 ]
  %10 = getelementptr inbounds nuw i8, ptr %.02536, i64 12
  %11 = load i32, ptr %10, align 4, !tbaa !53
  %12 = icmp sgt i32 %11, 0
  br i1 %12, label %.lr.ph, label %._crit_edge

.lr.ph:                                           ; preds = %.preheader
  %13 = getelementptr inbounds nuw i8, ptr %.02536, i64 16
  %wide.trip.count = zext nneg i32 %11 to i64
  %.pre.pre = load ptr, ptr %9, align 8, !tbaa !27
  br label %._crit_edge45

._crit_edge45:                                    ; preds = %.lr.ph, %._crit_edge45
  %indvars.iv = phi i64 [ 0, %.lr.ph ], [ %indvars.iv.next, %._crit_edge45 ]
  %.133 = phi i32 [ %.039, %.lr.ph ], [ %.2, %._crit_edge45 ]
  %.22431 = phi ptr [ %.02237, %.lr.ph ], [ %.3, %._crit_edge45 ]
  %14 = icmp eq ptr %.22431, null
  %.phi.trans.insert = getelementptr inbounds nuw [0 x i32], ptr %13, i64 0, i64 %indvars.iv
  %.pre46 = load i32, ptr %.phi.trans.insert, align 4, !tbaa !42
  %.phi.trans.insert47 = sext i32 %.pre46 to i64
  %.phi.trans.insert48 = getelementptr inbounds ptr, ptr %.pre.pre, i64 %.phi.trans.insert47
  %.pre49 = load ptr, ptr %.phi.trans.insert48, align 8, !tbaa !48
  %.phi.trans.insert50 = getelementptr inbounds nuw i8, ptr %.pre49, i64 12
  %.pre51 = load i32, ptr %.phi.trans.insert50, align 4, !tbaa !53
  %15 = icmp sgt i32 %.133, %.pre51
  %spec.select55 = tail call i32 @llvm.smin.i32(i32 %.133, i32 %.pre51)
  %16 = select i1 %14, i1 true, i1 %15
  %.3 = select i1 %16, ptr %.02536, ptr %.22431
  %.2 = select i1 %14, i32 %.pre51, i32 %spec.select55
  %indvars.iv.next = add nuw nsw i64 %indvars.iv, 1
  %exitcond.not = icmp eq i64 %indvars.iv.next, %wide.trip.count
  br i1 %exitcond.not, label %._crit_edge, label %._crit_edge45, !llvm.loop !69

._crit_edge:                                      ; preds = %._crit_edge45, %.preheader
  %.224.lcssa = phi ptr [ %.02237, %.preheader ], [ %.3, %._crit_edge45 ]
  %.1.lcssa = phi i32 [ %.039, %.preheader ], [ %.2, %._crit_edge45 ]
  %17 = add nsw i32 %.02038, -1
  %18 = icmp eq i32 %17, 0
  br i1 %18, label %._crit_edge40, label %19

19:                                               ; preds = %._crit_edge
  %20 = getelementptr inbounds nuw i8, ptr %.02536, i64 8
  %21 = load i32, ptr %20, align 4, !tbaa !57
  %.not30 = icmp eq i32 %21, 0
  br i1 %.not30, label %._crit_edge40, label %22

22:                                               ; preds = %19
  %23 = load ptr, ptr %9, align 8, !tbaa !27
  %24 = sext i32 %21 to i64
  %25 = getelementptr inbounds ptr, ptr %23, i64 %24
  %26 = load ptr, ptr %25, align 8, !tbaa !48
  %.not29 = icmp eq ptr %26, null
  br i1 %.not29, label %._crit_edge40, label %.preheader, !llvm.loop !70

._crit_edge40:                                    ; preds = %19, %22, %._crit_edge, %2, %3
  %.123 = phi ptr [ null, %3 ], [ null, %2 ], [ %.224.lcssa, %._crit_edge ], [ %.224.lcssa, %22 ], [ %.224.lcssa, %19 ]
  ret ptr %.123
}